target datalayout = "e-m:e-p270:32:32-p271:32:32-p272:64:64-i64:64-i128:128-f80:128-n8:16:32:64-S128"
target triple = "x86_64-pc-linux-gnu"

%"class.rocksdb::TestRandomAccessFile" = type { %"class.rocksdb::RandomAccessFile", %"class.std::unique_ptr.55", ptr }
%"class.rocksdb::RandomAccessFile" = type { ptr }
%"class.std::unique_ptr.55" = type { %"struct.std::__uniq_ptr_data.56" }
%"struct.std::__uniq_ptr_data.56" = type { %"class.std::__uniq_ptr_impl.57" }
%"class.std::__uniq_ptr_impl.57" = type { %"class.std::tuple.58" }
%"class.std::tuple.58" = type { %"struct.std::_Tuple_impl.59" }
%"struct.std::_Tuple_impl.59" = type { %"struct.std::_Head_base.62" }
%"struct.std::_Head_base.62" = type { ptr }

@_ZTVN7rocksdb16RandomAccessFileE = external unnamed_addr constant { [12 x ptr] }, align 8

; Function Attrs: mustprogress nounwind uwtable
define linkonce_odr noundef nonnull align 8 dereferenceable(8) ptr @_ZNSt10_Head_baseILm0EPN7rocksdb16RandomAccessFileELb0EE7_M_headERS3_(ptr noundef nonnull align 8 dereferenceable(8) %0) #2 comdat align 2 {
  %2 = alloca ptr, align 8
  store ptr %0, ptr %2, align 8, !tbaa !425
  %3 = load ptr, ptr %2, align 8, !tbaa !425
  %4 = getelementptr inbounds nuw %"struct.std::_Head_base.62", ptr %3, i32 0, i32 0
  ret ptr %4
}

; Function Attrs: mustprogress nounwind uwtable
define linkonce_odr noundef nonnull align 8 dereferenceable(8) ptr @_ZNSt11_Tuple_implILm0EJPN7rocksdb16RandomAccessFileESt14default_deleteIS1_EEE7_M_headERS5_(ptr noundef nonnull align 8 dereferenceable(8) %0) #2 comdat align 2 {
  %2 = alloca ptr, align 8
  store ptr %0, ptr %2, align 8, !tbaa !420
  %3 = load ptr, ptr %2, align 8, !tbaa !420
  %4 = call noundef nonnull align 8 dereferenceable(8) ptr @_ZNSt10_Head_baseILm0EPN7rocksdb16RandomAccessFileELb0EE7_M_headERS3_(ptr noundef nonnull align 8 dereferenceable(8) %3) #17
  ret ptr %4
}

; Function Attrs: mustprogress nounwind uwtable
define linkonce_odr noundef nonnull align 8 dereferenceable(8) ptr @_ZSt12__get_helperILm0EPN7rocksdb16RandomAccessFileEJSt14default_deleteIS1_EEERT0_RSt11_Tuple_implIXT_EJS5_DpT1_EE(ptr noundef nonnull align 8 dereferenceable(8) %0) #2 comdat {
  %2 = alloca ptr, align 8
  store ptr %0, ptr %2, align 8, !tbaa !420
  %3 = load ptr, ptr %2, align 8, !tbaa !420
  %4 = call noundef nonnull align 8 dereferenceable(8) ptr @_ZNSt11_Tuple_implILm0EJPN7rocksdb16RandomAccessFileESt14default_deleteIS1_EEE7_M_headERS5_(ptr noundef nonnull align 8 dereferenceable(8) %3) #17
  ret ptr %4
}

; Function Attrs: mustprogress nounwind uwtable
define linkonce_odr void @_ZNSt11_Tuple_implILm1EJSt14default_deleteIN7rocksdb16RandomAccessFileEEEEC2EOS4_(ptr noundef nonnull align 1 dereferenceable(1) %0, ptr noundef nonnull align 1 dereferenceable(1) %1) unnamed_addr #2 comdat align 2 {
  %3 = alloca ptr, align 8
  %4 = alloca ptr, align 8
  store ptr %0, ptr %3, align 8, !tbaa !423
  store ptr %1, ptr %4, align 8, !tbaa !423
  ret void
}

; Function Attrs: mustprogress nounwind uwtable
define linkonce_odr noundef nonnull align 8 dereferenceable(8) ptr @_ZSt3getILm0EJPN7rocksdb16RandomAccessFileESt14default_deleteIS1_EEERNSt13tuple_elementIXT_ESt5tupleIJDpT0_EEE4typeERS9_(ptr noundef nonnull align 8 dereferenceable(8) %0) #2 comdat {
  %2 = alloca ptr, align 8
  store ptr %0, ptr %2, align 8, !tbaa !418
  %3 = load ptr, ptr %2, align 8, !tbaa !418
  %4 = call noundef nonnull align 8 dereferenceable(8) ptr @_ZSt12__get_helperILm0EPN7rocksdb16RandomAccessFileEJSt14default_deleteIS1_EEERT0_RSt11_Tuple_implIXT_EJS5_DpT1_EE(ptr noundef nonnull align 8 dereferenceable(8) %3) #17
  ret ptr %4
}

; Function Attrs: mustprogress nounwind uwtable
define linkonce_odr void @_ZNSt11_Tuple_implILm0EJPN7rocksdb16RandomAccessFileESt14default_deleteIS1_EEEC2EOS5_(ptr noundef nonnull align 8 dereferenceable(8) %0, ptr noundef nonnull align 8 dereferenceable(8) %1) unnamed_addr #2 comdat align 2 {
  %3 = alloca ptr, align 8
  %4 = alloca ptr, align 8
  store ptr %0, ptr %3, align 8, !tbaa !420
  store ptr %1, ptr %4, align 8, !tbaa !420
  %5 = load ptr, ptr %3, align 8
  %6 = load ptr, ptr %4, align 8, !tbaa !420
  call void @_ZNSt11_Tuple_implILm1EJSt14default_deleteIN7rocksdb16RandomAccessFileEEEEC2EOS4_(ptr noundef nonnull align 1 dereferenceable(1) %5, ptr noundef nonnull align 1 dereferenceable(1) %6) #17
  %7 = load ptr, ptr %4, align 8, !tbaa !420
  call void @llvm.memcpy.p0.p0.i64(ptr align 8 %5, ptr align 8 %7, i64 8, i1 false), !tbaa.struct !422
  ret void
}

; Function Attrs: mustprogress nounwind uwtable
define linkonce_odr noundef nonnull align 8 dereferenceable(8) ptr @_ZNSt15__uniq_ptr_implIN7rocksdb16RandomAccessFileESt14default_deleteIS1_EE6_M_ptrEv(ptr noundef nonnull align 8 dereferenceable(8) %0) #2 comdat align 2 {
  %2 = alloca ptr, align 8
  store ptr %0, ptr %2, align 8, !tbaa !416
  %3 = load ptr, ptr %2, align 8
  %4 = getelementptr inbounds nuw %"class.std::__uniq_ptr_impl.57", ptr %3, i32 0, i32 0
  %5 = call noundef nonnull align 8 dereferenceable(8) ptr @_ZSt3getILm0EJPN7rocksdb16RandomAccessFileESt14default_deleteIS1_EEERNSt13tuple_elementIXT_ESt5tupleIJDpT0_EEE4typeERS9_(ptr noundef nonnull align 8 dereferenceable(8) %4) #17
  ret ptr %5
}

; Function Attrs: mustprogress nounwind uwtable
define linkonce_odr void @_ZNSt5tupleIJPN7rocksdb16RandomAccessFileESt14default_deleteIS1_EEEC2EOS5_(ptr noundef nonnull align 8 dereferenceable(8) %0, ptr noundef nonnull align 8 dereferenceable(8) %1) unnamed_addr #2 comdat align 2 {
  %3 = alloca ptr, align 8
  %4 = alloca ptr, align 8
  store ptr %0, ptr %3, align 8, !tbaa !418
  store ptr %1, ptr %4, align 8, !tbaa !418
  %5 = load ptr, ptr %3, align 8
  %6 = load ptr, ptr %4, align 8, !tbaa !418
  call void @_ZNSt11_Tuple_implILm0EJPN7rocksdb16RandomAccessFileESt14default_deleteIS1_EEEC2EOS5_(ptr noundef nonnull align 8 dereferenceable(8) %5, ptr noundef nonnull align 8 dereferenceable(8) %6) #17
  ret void
}

; Function Attrs: mustprogress nounwind uwtable
define linkonce_odr void @_ZNSt15__uniq_ptr_implIN7rocksdb16RandomAccessFileESt14default_deleteIS1_EEC2EOS4_(ptr noundef nonnull align 8 dereferenceable(8) %0, ptr noundef nonnull align 8 dereferenceable(8) %1) unnamed_addr #2 comdat align 2 {
  %3 = alloca ptr, align 8
  %4 = alloca ptr, align 8
  store ptr %0, ptr %3, align 8, !tbaa !416
  store ptr %1, ptr %4, align 8, !tbaa !416
  %5 = load ptr, ptr %3, align 8
  %6 = getelementptr inbounds nuw %"class.std::__uniq_ptr_impl.57", ptr %5, i32 0, i32 0
  %7 = load ptr, ptr %4, align 8, !tbaa !416
  %8 = getelementptr inbounds nuw %"class.std::__uniq_ptr_impl.57", ptr %7, i32 0, i32 0
  call void @_ZNSt5tupleIJPN7rocksdb16RandomAccessFileESt14default_deleteIS1_EEEC2EOS5_(ptr noundef nonnull align 8 dereferenceable(8) %6, ptr noundef nonnull align 8 dereferenceable(8) %8) #17
  %9 = load ptr, ptr %4, align 8, !tbaa !416
  %10 = call noundef nonnull align 8 dereferenceable(8) ptr @_ZNSt15__uniq_ptr_implIN7rocksdb16RandomAccessFileESt14default_deleteIS1_EE6_M_ptrEv(ptr noundef nonnull align 8 dereferenceable(8) %9) #17
  store ptr null, ptr %10, align 8, !tbaa !154
  ret void
}

; Function Attrs: mustprogress nounwind uwtable
define linkonce_odr void @_ZNSt15__uniq_ptr_dataIN7rocksdb16RandomAccessFileESt14default_deleteIS1_ELb1ELb1EEC2EOS4_(ptr noundef nonnull align 8 dereferenceable(8) %0, ptr noundef nonnull align 8 dereferenceable(8) %1) unnamed_addr #2 comdat align 2 {
  %3 = alloca ptr, align 8
  %4 = alloca ptr, align 8
  store ptr %0, ptr %3, align 8, !tbaa !414
  store ptr %1, ptr %4, align 8, !tbaa !414
  %5 = load ptr, ptr %3, align 8
  %6 = load ptr, ptr %4, align 8, !tbaa !414
  call void @_ZNSt15__uniq_ptr_implIN7rocksdb16RandomAccessFileESt14default_deleteIS1_EEC2EOS4_(ptr noundef nonnull align 8 dereferenceable(8) %5, ptr noundef nonnull align 8 dereferenceable(8) %6) #17
  ret void
}

; Function Attrs: mustprogress nounwind uwtable
define linkonce_odr void @_ZNSt10unique_ptrIN7rocksdb16RandomAccessFileESt14default_deleteIS1_EEC2EOS4_(ptr noundef nonnull align 8 dereferenceable(8) %0, ptr noundef nonnull align 8 dereferenceable(8) %1) unnamed_addr #2 comdat align 2 {
  %3 = alloca ptr, align 8
  %4 = alloca ptr, align 8
  store ptr %0, ptr %3, align 8, !tbaa !142
  store ptr %1, ptr %4, align 8, !tbaa !142
  %5 = load ptr, ptr %3, align 8
  %6 = getelementptr inbounds nuw %"class.std::unique_ptr.55", ptr %5, i32 0, i32 0
  %7 = load ptr, ptr %4, align 8, !tbaa !142
  %8 = getelementptr inbounds nuw %"class.std::unique_ptr.55", ptr %7, i32 0, i32 0
  call void @_ZNSt15__uniq_ptr_dataIN7rocksdb16RandomAccessFileESt14default_deleteIS1_ELb1ELb1EEC2EOS4_(ptr noundef nonnull align 8 dereferenceable(8) %6, ptr noundef nonnull align 8 dereferenceable(8) %8) #17
  ret void
}

; Function Attrs: mustprogress nounwind uwtable
define linkonce_odr void @_ZN7rocksdb16RandomAccessFileC2Ev(ptr noundef nonnull align 8 dereferenceable(8) %0) unnamed_addr #2 comdat align 2 {
  %2 = alloca ptr, align 8
  store ptr %0, ptr %2, align 8, !tbaa !154
  %3 = load ptr, ptr %2, align 8
  store ptr getelementptr inbounds inrange(-16, 80) ({ [12 x ptr] }, ptr @_ZTVN7rocksdb16RandomAccessFileE, i32 0, i32 0, i32 2), ptr %3, align 8, !tbaa !17
  ret void
}

; Function Attrs: mustprogress uwtable
define void @_ZN7rocksdb20TestRandomAccessFileC2EOSt10unique_ptrINS_16RandomAccessFileESt14default_deleteIS2_EEPNS_21FaultInjectionTestEnvE(ptr noundef nonnull align 8 dereferenceable(24) %0, ptr noundef nonnull align 8 dereferenceable(8) %1, ptr noundef %2) unnamed_addr #0 align 2 {
  %4 = alloca ptr, align 8
  %5 = alloca ptr, align 8
  %6 = alloca ptr, align 8
  store ptr %0, ptr %4, align 8, !tbaa !140
  store ptr %1, ptr %5, align 8, !tbaa !142
  store ptr %2, ptr %6, align 8, !tbaa !94
  %7 = load ptr, ptr %4, align 8
  call void @_ZN7rocksdb16RandomAccessFileC2Ev(ptr noundef nonnull align 8 dereferenceable(8) %7)
  store ptr getelementptr inbounds inrange(-16, 80) ({ [12 x ptr] }, ptr @_ZTVN7rocksdb20TestRandomAccessFileE, i32 0, i32 0, i32 2), ptr %7, align 8, !tbaa !17
  %8 = getelementptr inbounds nuw %"class.rocksdb::TestRandomAccessFile", ptr %7, i32 0, i32 1
  %9 = load ptr, ptr %5, align 8, !tbaa !142
  call void @_ZNSt10unique_ptrIN7rocksdb16RandomAccessFileESt14default_deleteIS1_EEC2EOS4_(ptr noundef nonnull align 8 dereferenceable(8) %8, ptr noundef nonnull align 8 dereferenceable(8) %9) #17
  %10 = getelementptr inbounds nuw %"class.rocksdb::TestRandomAccessFile", ptr %7, i32 0, i32 2
  %11 = load ptr, ptr %6, align 8, !tbaa !94
  store ptr %11, ptr %10, align 8, !tbaa !144
  ret void
}