; Function Attrs: mustprogress nofree norecurse nosync nounwind willreturn memory(argmem: readwrite) uwtable
define void @_ZN7rocksdb20TestRandomAccessFileC2EOSt10unique_ptrINS_16RandomAccessFileESt14default_deleteIS2_EEPNS_21FaultInjectionTestEnvE(ptr noundef nonnull writeonly align 8 captures(none) dereferenceable(24) initializes((0, 24)) %0, ptr noundef nonnull align 8 captures(none) dereferenceable(8) %1, ptr noundef %2) unnamed_addr #6 align 2 {
  store ptr getelementptr inbounds nuw inrange(-16, 80) (i8, ptr @_ZTVN7rocksdb20TestRandomAccessFileE, i64 16), ptr %0, align 8, !tbaa !22
  %4 = getelementptr inbounds nuw i8, ptr %0, i64 8
  %5 = load i64, ptr %1, align 8, !tbaa !150
  store i64 %5, ptr %4, align 8, !tbaa !150
  store ptr null, ptr %1, align 8, !tbaa !150
  %6 = getelementptr inbounds nuw i8, ptr %0, i64 16
  store ptr %2, ptr %6, align 8, !tbaa !152
  ret void
}